target datalayout = "e-m:e-p270:32:32-p271:32:32-p272:64:64-i64:64-i128:128-f80:128-n8:16:32:64-S128"
target triple = "x86_64-pc-linux-gnu"

; Function Attrs: nounwind uwtable
define void @ff_set_min_dist_lsf(ptr noundef %0, double noundef %1, i32 noundef %2) #0 {
  %4 = alloca ptr, align 8
  %5 = alloca double, align 8
  %6 = alloca i32, align 4
  %7 = alloca i32, align 4
  %8 = alloca float, align 4
  store ptr %0, ptr %4, align 8, !tbaa !17
  store double %1, ptr %5, align 8, !tbaa !19
  store i32 %2, ptr %6, align 4, !tbaa !9
  call void @llvm.lifetime.start.p0(i64 4, ptr %7) #3
  call void @llvm.lifetime.start.p0(i64 4, ptr %8) #3
  store float 0.000000e+00, ptr %8, align 4, !tbaa !21
  store i32 0, ptr %7, align 4, !tbaa !9
  br label %9

9:                                                ; preds = %44, %3
  %10 = load i32, ptr %7, align 4, !tbaa !9
  %11 = load i32, ptr %6, align 4, !tbaa !9
  %12 = icmp slt i32 %10, %11
  br i1 %12, label %13, label %47

13:                                               ; preds = %9
  %14 = load ptr, ptr %4, align 8, !tbaa !17
  %15 = load i32, ptr %7, align 4, !tbaa !9
  %16 = sext i32 %15 to i64
  %17 = getelementptr inbounds float, ptr %14, i64 %16
  %18 = load float, ptr %17, align 4, !tbaa !21
  %19 = fpext nsz float %18 to double
  %20 = load float, ptr %8, align 4, !tbaa !21
  %21 = fpext nsz float %20 to double
  %22 = load double, ptr %5, align 8, !tbaa !19
  %23 = fadd nsz double %21, %22
  %24 = fcmp nsz ogt double %19, %23
  br i1 %24, label %25, label %32

25:                                               ; preds = %13
  %26 = load ptr, ptr %4, align 8, !tbaa !17
  %27 = load i32, ptr %7, align 4, !tbaa !9
  %28 = sext i32 %27 to i64
  %29 = getelementptr inbounds float, ptr %26, i64 %28
  %30 = load float, ptr %29, align 4, !tbaa !21
  %31 = fpext nsz float %30 to double
  br label %37

32:                                               ; preds = %13
  %33 = load float, ptr %8, align 4, !tbaa !21
  %34 = fpext nsz float %33 to double
  %35 = load double, ptr %5, align 8, !tbaa !19
  %36 = fadd nsz double %34, %35
  br label %37

37:                                               ; preds = %32, %25
  %38 = phi nsz double [ %31, %25 ], [ %36, %32 ]
  %39 = fptrunc nsz double %38 to float
  %40 = load ptr, ptr %4, align 8, !tbaa !17
  %41 = load i32, ptr %7, align 4, !tbaa !9
  %42 = sext i32 %41 to i64
  %43 = getelementptr inbounds float, ptr %40, i64 %42
  store float %39, ptr %43, align 4, !tbaa !21
  store float %39, ptr %8, align 4, !tbaa !21
  br label %44

44:                                               ; preds = %37
  %45 = load i32, ptr %7, align 4, !tbaa !9
  %46 = add nsw i32 %45, 1
  store i32 %46, ptr %7, align 4, !tbaa !9
  br label %9, !llvm.loop !23

47:                                               ; preds = %9
  call void @llvm.lifetime.end.p0(i64 4, ptr %8) #3
  call void @llvm.lifetime.end.p0(i64 4, ptr %7) #3
  ret void
}