; Function Attrs: nofree norecurse nosync nounwind memory(argmem: readwrite) uwtable
define void @ff_set_min_dist_lsf(ptr noundef captures(none) %0, double noundef %1, i32 noundef %2) local_unnamed_addr #0 {
  %4 = icmp sgt i32 %2, 0
  br i1 %4, label %.lr.ph.preheader, label %._crit_edge

.lr.ph.preheader:                                 ; preds = %3
  %wide.trip.count = zext nneg i32 %2 to i64
  br label %.lr.ph

.lr.ph:                                           ; preds = %.lr.ph.preheader, %.lr.ph
  %indvars.iv = phi i64 [ 0, %.lr.ph.preheader ], [ %indvars.iv.next, %.lr.ph ]
  %.016 = phi float [ 0.000000e+00, %.lr.ph.preheader ], [ %12, %.lr.ph ]
  %5 = getelementptr inbounds nuw float, ptr %0, i64 %indvars.iv
  %6 = load float, ptr %5, align 4, !tbaa !12
  %7 = fpext nsz float %6 to double
  %8 = fpext nsz float %.016 to double
  %9 = fadd nsz double %1, %8
  %10 = fcmp nsz olt double %9, %7
  %11 = fptrunc nsz double %9 to float
  %12 = select i1 %10, float %6, float %11
  store float %12, ptr %5, align 4, !tbaa !12
  %indvars.iv.next = add nuw nsw i64 %indvars.iv, 1
  %exitcond.not = icmp eq i64 %indvars.iv.next, %wide.trip.count
  br i1 %exitcond.not, label %._crit_edge, label %.lr.ph, !llvm.loop !14

._crit_edge:                                      ; preds = %.lr.ph, %3
  ret void
}